; Function Attrs: mustprogress nounwind uwtable
define internal void @_ZNSt17_Function_handlerIFN4llvm5ErrorERNS0_11raw_ostreamEEZN12_GLOBAL__N_116ModuleCacheEntry5writeERKNS0_12MemoryBufferEEUlS3_E_E9_M_invokeERKSt9_Any_dataS3_(ptr dead_on_unwind noalias nocapture writable writeonly sret(%"class.llvm::Error") align 8 %0, ptr nocapture noundef nonnull readonly align 8 dereferenceable(16) %1, ptr noundef nonnull align 8 dereferenceable(48) %2) #0 align 2 {
  %.val = load ptr, ptr %1, align 8
  %4 = getelementptr i8, ptr %.val, i64 8
  %.val.val = load ptr, ptr %4, align 8
  %5 = getelementptr i8, ptr %.val, i64 16
  %.val.val2 = load ptr, ptr %5, align 8
  tail call void @llvm.experimental.noalias.scope.decl(metadata !355)
  tail call void @llvm.experimental.noalias.scope.decl(metadata !358)
  tail call void @llvm.experimental.noalias.scope.decl(metadata !361)
  %6 = ptrtoint ptr %.val.val2 to i64
  %7 = ptrtoint ptr %.val.val to i64
  %8 = sub i64 %6, %7
  %9 = getelementptr inbounds nuw i8, ptr %2, i64 24
  %10 = load ptr, ptr %9, align 8, !noalias !364
  %11 = getelementptr inbounds nuw i8, ptr %2, i64 32
  %12 = load ptr, ptr %11, align 8, !noalias !364
  %13 = ptrtoint ptr %10 to i64
  %14 = ptrtoint ptr %12 to i64
  %15 = sub i64 %13, %14
  %16 = icmp ugt i64 %8, %15
  br i1 %16, label %17, label %19

17:                                               ; preds = %3
  %18 = tail call noundef nonnull align 8 dereferenceable(48) ptr @_ZN4llvm11raw_ostream5writeEPKcm(ptr noundef nonnull align 8 dereferenceable(48) %2, ptr noundef %.val.val, i64 noundef %8) #25, !noalias !364
  br label %_ZSt10__invoke_rIN4llvm5ErrorERZN12_GLOBAL__N_116ModuleCacheEntry5writeERKNS0_12MemoryBufferEEUlRNS0_11raw_ostreamEE_JS8_EENSt9enable_ifIX16is_invocable_r_vIT_T0_DpT1_EESC_E4typeEOSD_DpOSE_.exit

19:                                               ; preds = %3
  %.not.i.i.i.i = icmp eq ptr %.val.val2, %.val.val
  br i1 %.not.i.i.i.i, label %_ZSt10__invoke_rIN4llvm5ErrorERZN12_GLOBAL__N_116ModuleCacheEntry5writeERKNS0_12MemoryBufferEEUlRNS0_11raw_ostreamEE_JS8_EENSt9enable_ifIX16is_invocable_r_vIT_T0_DpT1_EESC_E4typeEOSD_DpOSE_.exit, label %20

20:                                               ; preds = %19
  tail call void @llvm.memcpy.p0.p0.i64(ptr align 1 %12, ptr align 1 %.val.val, i64 %8, i1 false), !noalias !364
  %21 = load ptr, ptr %11, align 8, !noalias !364
  %22 = getelementptr inbounds i8, ptr %21, i64 %8
  store ptr %22, ptr %11, align 8, !noalias !364
  br label %_ZSt10__invoke_rIN4llvm5ErrorERZN12_GLOBAL__N_116ModuleCacheEntry5writeERKNS0_12MemoryBufferEEUlRNS0_11raw_ostreamEE_JS8_EENSt9enable_ifIX16is_invocable_r_vIT_T0_DpT1_EESC_E4typeEOSD_DpOSE_.exit

_ZSt10__invoke_rIN4llvm5ErrorERZN12_GLOBAL__N_116ModuleCacheEntry5writeERKNS0_12MemoryBufferEEUlRNS0_11raw_ostreamEE_JS8_EENSt9enable_ifIX16is_invocable_r_vIT_T0_DpT1_EESC_E4typeEOSD_DpOSE_.exit: ; preds = %17, %19, %20
  store ptr null, ptr %0, align 8, !alias.scope !364
  ret void
}